; Function Attrs: nofree norecurse nosync nounwind sspstrong memory(argmem: read) uwtable
define internal ptr @left_adjust_char_head(ptr noundef readnone captures(address) %0, ptr noundef %1, ptr noundef readnone captures(address) %2, ptr readnone captures(none) %3) #3 {
  %.not = icmp ugt ptr %1, %0
  br i1 %.not, label %5, label %48

5:                                                ; preds = %4
  %6 = load i8, ptr %1, align 1, !tbaa !6
  %7 = zext i8 %6 to i64
  %8 = getelementptr inbounds nuw [256 x i8], ptr @SJIS_CAN_BE_TRAIL_TABLE, i64 0, i64 %7
  %9 = load i8, ptr %8, align 1, !tbaa !6
  %.not26 = icmp eq i8 %9, 0
  br i1 %.not26, label %.loopexit, label %.preheader

.preheader:                                       ; preds = %5, %11
  %.1 = phi ptr [ %12, %11 ], [ %1, %5 ]
  %10 = icmp ugt ptr %.1, %0
  br i1 %10, label %11, label %.loopexit.loopexit

11:                                               ; preds = %.preheader
  %12 = getelementptr inbounds i8, ptr %.1, i64 -1
  %13 = load i8, ptr %12, align 1, !tbaa !6
  %14 = zext i8 %13 to i64
  %15 = getelementptr inbounds nuw [256 x i32], ptr @EncLen_SJIS, i64 0, i64 %14
  %16 = load i32, ptr %15, align 4, !tbaa !9
  %17 = icmp sgt i32 %16, 1
  br i1 %17, label %.preheader, label %.loopexit.loopexit, !llvm.loop !26

.loopexit.loopexit:                               ; preds = %.preheader, %11
  %.pre = load i8, ptr %.1, align 1, !tbaa !6
  %.pre27 = zext i8 %.pre to i64
  br label %.loopexit

.loopexit:                                        ; preds = %.loopexit.loopexit, %5
  %.pre-phi = phi i64 [ %.pre27, %.loopexit.loopexit ], [ %7, %5 ]
  %.021 = phi ptr [ %.1, %.loopexit.loopexit ], [ %1, %5 ]
  %18 = getelementptr inbounds nuw i8, ptr %.021, i64 1
  %19 = getelementptr inbounds nuw [256 x i8], ptr @trans, i64 0, i64 %.pre-phi
  %20 = load i8, ptr %19, align 1, !tbaa !6
  %21 = sext i8 %20 to i64
  %22 = icmp slt i8 %20, 0
  br i1 %22, label %23, label %26

23:                                               ; preds = %.loopexit
  %24 = icmp eq i8 %20, -1
  %25 = select i1 %24, i32 1, i32 -1
  br label %mbc_enc_len.exit

26:                                               ; preds = %.loopexit
  %27 = icmp eq ptr %18, %2
  br i1 %27, label %28, label %32

28:                                               ; preds = %26
  %29 = getelementptr inbounds nuw [256 x i32], ptr @EncLen_SJIS, i64 0, i64 %.pre-phi
  %30 = load i32, ptr %29, align 4, !tbaa !9
  %31 = sub nsw i32 0, %30
  br label %mbc_enc_len.exit

32:                                               ; preds = %26
  %33 = load i8, ptr %18, align 1, !tbaa !6
  %34 = zext i8 %33 to i64
  %35 = getelementptr inbounds nuw [2 x [256 x i8]], ptr @trans, i64 0, i64 %21, i64 %34
  %36 = load i8, ptr %35, align 1, !tbaa !6
  %37 = icmp eq i8 %36, -1
  %38 = select i1 %37, i32 2, i32 -1
  br label %mbc_enc_len.exit

mbc_enc_len.exit:                                 ; preds = %23, %28, %32
  %.0.i = phi i32 [ %25, %23 ], [ %31, %28 ], [ %38, %32 ]
  %39 = sext i32 %.0.i to i64
  %40 = getelementptr inbounds i8, ptr %.021, i64 %39
  %41 = icmp ugt ptr %40, %1
  br i1 %41, label %48, label %42

42:                                               ; preds = %mbc_enc_len.exit
  %43 = ptrtoint ptr %1 to i64
  %44 = ptrtoint ptr %40 to i64
  %45 = sub i64 %43, %44
  %46 = and i64 %45, -2
  %47 = getelementptr inbounds i8, ptr %40, i64 %46
  br label %48

48:                                               ; preds = %mbc_enc_len.exit, %4, %42
  %.0 = phi ptr [ %47, %42 ], [ %1, %4 ], [ %.021, %mbc_enc_len.exit ]
  ret ptr %.0
}